target datalayout = "e-m:e-p270:32:32-p271:32:32-p272:64:64-i64:64-i128:128-f80:128-n8:16:32:64-S128"
target triple = "x86_64-pc-linux-gnu"

%struct.VLC = type { i32, ptr, i32, i32 }
%struct.IVIHuffDesc = type { i32, [16 x i8] }
%struct.IVIHuffTab = type { i32, ptr, %struct.IVIHuffDesc, %struct.VLC }
%struct.GetBitContext = type { ptr, ptr, i32, i32, i32 }

@ivi_blk_vlc_tabs = internal global [8 x %struct.VLC] zeroinitializer, align 16
@ivi_mb_vlc_tabs = internal global [8 x %struct.VLC] zeroinitializer, align 16
@.str = private unnamed_addr constant [29 x i8] c"Empty custom Huffman table!\0A\00", align 1
@.str.1 = private unnamed_addr constant [44 x i8] c"Error while initializing custom vlc table!\0A\00", align 1

; Function Attrs: inlinehint nounwind willreturn memory(none) uwtable
define internal i32 @zero_extend(i32 noundef %0, i32 noundef %1) #6 {
  %3 = alloca i32, align 4
  %4 = alloca i32, align 4
  store i32 %0, ptr %3, align 4, !tbaa !4
  store i32 %1, ptr %4, align 4, !tbaa !4
  %5 = load i32, ptr %3, align 4, !tbaa !4
  %6 = load i32, ptr %4, align 4, !tbaa !4
  %7 = zext i32 %6 to i64
  %8 = sub i64 32, %7
  %9 = trunc i64 %8 to i32
  %10 = shl i32 %5, %9
  %11 = load i32, ptr %4, align 4, !tbaa !4
  %12 = zext i32 %11 to i64
  %13 = sub i64 32, %12
  %14 = trunc i64 %13 to i32
  %15 = lshr i32 %10, %14
  ret i32 %15
}

; Function Attrs: nounwind uwtable
define internal void @ivi_huff_desc_copy(ptr noundef %0, ptr noundef %1) #2 {
  %3 = alloca ptr, align 8
  %4 = alloca ptr, align 8
  store ptr %0, ptr %3, align 8, !tbaa !36
  store ptr %1, ptr %4, align 8, !tbaa !36
  %5 = load ptr, ptr %4, align 8, !tbaa !36
  %6 = getelementptr inbounds nuw %struct.IVIHuffDesc, ptr %5, i32 0, i32 0
  %7 = load i32, ptr %6, align 4, !tbaa !26
  %8 = load ptr, ptr %3, align 8, !tbaa !36
  %9 = getelementptr inbounds nuw %struct.IVIHuffDesc, ptr %8, i32 0, i32 0
  store i32 %7, ptr %9, align 4, !tbaa !26
  %10 = load ptr, ptr %3, align 8, !tbaa !36
  %11 = getelementptr inbounds nuw %struct.IVIHuffDesc, ptr %10, i32 0, i32 1
  %12 = getelementptr inbounds [16 x i8], ptr %11, i64 0, i64 0
  %13 = load ptr, ptr %4, align 8, !tbaa !36
  %14 = getelementptr inbounds nuw %struct.IVIHuffDesc, ptr %13, i32 0, i32 1
  %15 = getelementptr inbounds [16 x i8], ptr %14, i64 0, i64 0
  %16 = load ptr, ptr %4, align 8, !tbaa !36
  %17 = getelementptr inbounds nuw %struct.IVIHuffDesc, ptr %16, i32 0, i32 0
  %18 = load i32, ptr %17, align 4, !tbaa !26
  %19 = sext i32 %18 to i64
  call void @llvm.memcpy.p0.p0.i64(ptr align 4 %12, ptr align 4 %15, i64 %19, i1 false)
  ret void
}

; Function Attrs: nounwind uwtable
define internal i32 @ivi_huff_desc_cmp(ptr noundef %0, ptr noundef %1) #2 {
  %3 = alloca ptr, align 8
  %4 = alloca ptr, align 8
  store ptr %0, ptr %3, align 8, !tbaa !36
  store ptr %1, ptr %4, align 8, !tbaa !36
  %5 = load ptr, ptr %3, align 8, !tbaa !36
  %6 = getelementptr inbounds nuw %struct.IVIHuffDesc, ptr %5, i32 0, i32 0
  %7 = load i32, ptr %6, align 4, !tbaa !26
  %8 = load ptr, ptr %4, align 8, !tbaa !36
  %9 = getelementptr inbounds nuw %struct.IVIHuffDesc, ptr %8, i32 0, i32 0
  %10 = load i32, ptr %9, align 4, !tbaa !26
  %11 = icmp ne i32 %7, %10
  br i1 %11, label %25, label %12

12:                                               ; preds = %2
  %13 = load ptr, ptr %3, align 8, !tbaa !36
  %14 = getelementptr inbounds nuw %struct.IVIHuffDesc, ptr %13, i32 0, i32 1
  %15 = getelementptr inbounds [16 x i8], ptr %14, i64 0, i64 0
  %16 = load ptr, ptr %4, align 8, !tbaa !36
  %17 = getelementptr inbounds nuw %struct.IVIHuffDesc, ptr %16, i32 0, i32 1
  %18 = getelementptr inbounds [16 x i8], ptr %17, i64 0, i64 0
  %19 = load ptr, ptr %3, align 8, !tbaa !36
  %20 = getelementptr inbounds nuw %struct.IVIHuffDesc, ptr %19, i32 0, i32 0
  %21 = load i32, ptr %20, align 4, !tbaa !26
  %22 = sext i32 %21 to i64
  %23 = call i32 @memcmp(ptr noundef %15, ptr noundef %18, i64 noundef %22) #14
  %24 = icmp ne i32 %23, 0
  br label %25

25:                                               ; preds = %12, %2
  %26 = phi i1 [ true, %2 ], [ %24, %12 ]
  %27 = zext i1 %26 to i32
  ret i32 %27
}

; Function Attrs: inlinehint nounwind uwtable
define internal i32 @get_bits(ptr noundef %0, i32 noundef %1) #4 {
  %3 = alloca ptr, align 8
  %4 = alloca i32, align 4
  %5 = alloca i32, align 4
  %6 = alloca i32, align 4
  %7 = alloca i32, align 4
  %8 = alloca i32, align 4
  store ptr %0, ptr %3, align 8, !tbaa !15
  store i32 %1, ptr %4, align 4, !tbaa !4
  call void @llvm.lifetime.start.p0(i64 4, ptr %5) #12
  call void @llvm.lifetime.start.p0(i64 4, ptr %6) #12
  %9 = load ptr, ptr %3, align 8, !tbaa !15
  %10 = getelementptr inbounds nuw %struct.GetBitContext, ptr %9, i32 0, i32 2
  %11 = load i32, ptr %10, align 8, !tbaa !31
  store i32 %11, ptr %6, align 4, !tbaa !4
  call void @llvm.lifetime.start.p0(i64 4, ptr %7) #12
  call void @llvm.lifetime.start.p0(i64 4, ptr %8) #12
  %12 = load ptr, ptr %3, align 8, !tbaa !15
  %13 = getelementptr inbounds nuw %struct.GetBitContext, ptr %12, i32 0, i32 4
  %14 = load i32, ptr %13, align 8, !tbaa !34
  store i32 %14, ptr %8, align 4, !tbaa !4
  %15 = load ptr, ptr %3, align 8, !tbaa !15
  %16 = getelementptr inbounds nuw %struct.GetBitContext, ptr %15, i32 0, i32 0
  %17 = load ptr, ptr %16, align 8, !tbaa !35
  %18 = load i32, ptr %6, align 4, !tbaa !4
  %19 = lshr i32 %18, 3
  %20 = zext i32 %19 to i64
  %21 = getelementptr inbounds nuw i8, ptr %17, i64 %20
  %22 = load i32, ptr %21, align 1, !tbaa !27
  %23 = load i32, ptr %6, align 4, !tbaa !4
  %24 = and i32 %23, 7
  %25 = lshr i32 %22, %24
  store i32 %25, ptr %7, align 4, !tbaa !4
  %26 = load i32, ptr %7, align 4, !tbaa !4
  %27 = load i32, ptr %4, align 4, !tbaa !4
  %28 = call i32 @zero_extend(i32 noundef %26, i32 noundef %27) #13
  store i32 %28, ptr %5, align 4, !tbaa !4
  %29 = load i32, ptr %8, align 4, !tbaa !4
  %30 = load i32, ptr %6, align 4, !tbaa !4
  %31 = load i32, ptr %4, align 4, !tbaa !4
  %32 = add i32 %30, %31
  %33 = icmp ugt i32 %29, %32
  br i1 %33, label %34, label %38

34:                                               ; preds = %2
  %35 = load i32, ptr %6, align 4, !tbaa !4
  %36 = load i32, ptr %4, align 4, !tbaa !4
  %37 = add i32 %35, %36
  br label %40

38:                                               ; preds = %2
  %39 = load i32, ptr %8, align 4, !tbaa !4
  br label %40

40:                                               ; preds = %38, %34
  %41 = phi i32 [ %37, %34 ], [ %39, %38 ]
  store i32 %41, ptr %6, align 4, !tbaa !4
  %42 = load i32, ptr %6, align 4, !tbaa !4
  %43 = load ptr, ptr %3, align 8, !tbaa !15
  %44 = getelementptr inbounds nuw %struct.GetBitContext, ptr %43, i32 0, i32 2
  store i32 %42, ptr %44, align 8, !tbaa !31
  %45 = load i32, ptr %5, align 4, !tbaa !4
  call void @llvm.lifetime.end.p0(i64 4, ptr %8) #12
  call void @llvm.lifetime.end.p0(i64 4, ptr %7) #12
  call void @llvm.lifetime.end.p0(i64 4, ptr %6) #12
  call void @llvm.lifetime.end.p0(i64 4, ptr %5) #12
  ret i32 %45
}

; Function Attrs: nounwind uwtable
define i32 @ff_ivi_dec_huff_desc(ptr noundef %0, i32 noundef %1, i32 noundef %2, ptr noundef %3, ptr noundef %4) #2 {
  %6 = alloca i32, align 4
  %7 = alloca ptr, align 8
  %8 = alloca i32, align 4
  %9 = alloca i32, align 4
  %10 = alloca ptr, align 8
  %11 = alloca ptr, align 8
  %12 = alloca i32, align 4
  %13 = alloca i32, align 4
  %14 = alloca %struct.IVIHuffDesc, align 4
  %15 = alloca i32, align 4
  store ptr %0, ptr %7, align 8, !tbaa !15
  store i32 %1, ptr %8, align 4, !tbaa !4
  store i32 %2, ptr %9, align 4, !tbaa !4
  store ptr %3, ptr %10, align 8, !tbaa !17
  store ptr %4, ptr %11, align 8, !tbaa !19
  call void @llvm.lifetime.start.p0(i64 4, ptr %12) #12
  call void @llvm.lifetime.start.p0(i64 4, ptr %13) #12
  call void @llvm.lifetime.start.p0(i64 20, ptr %14) #12
  %16 = load i32, ptr %8, align 4, !tbaa !4
  %17 = icmp ne i32 %16, 0
  br i1 %17, label %24, label %18

18:                                               ; preds = %5
  %19 = load i32, ptr %9, align 4, !tbaa !4
  %20 = icmp ne i32 %19, 0
  %21 = select i1 %20, ptr getelementptr inbounds ([8 x %struct.VLC], ptr @ivi_blk_vlc_tabs, i64 0, i64 7), ptr getelementptr inbounds ([8 x %struct.VLC], ptr @ivi_mb_vlc_tabs, i64 0, i64 7)
  %22 = load ptr, ptr %10, align 8, !tbaa !17
  %23 = getelementptr inbounds nuw %struct.IVIHuffTab, ptr %22, i32 0, i32 1
  store ptr %21, ptr %23, align 8, !tbaa !21
  store i32 0, ptr %6, align 4
  store i32 1, ptr %15, align 4
  br label %121

24:                                               ; preds = %5
  %25 = load ptr, ptr %7, align 8, !tbaa !15
  %26 = call i32 @get_bits(ptr noundef %25, i32 noundef 3)
  %27 = load ptr, ptr %10, align 8, !tbaa !17
  %28 = getelementptr inbounds nuw %struct.IVIHuffTab, ptr %27, i32 0, i32 0
  store i32 %26, ptr %28, align 8, !tbaa !25
  %29 = load ptr, ptr %10, align 8, !tbaa !17
  %30 = getelementptr inbounds nuw %struct.IVIHuffTab, ptr %29, i32 0, i32 0
  %31 = load i32, ptr %30, align 8, !tbaa !25
  %32 = icmp eq i32 %31, 7
  br i1 %32, label %33, label %101

33:                                               ; preds = %24
  %34 = load ptr, ptr %7, align 8, !tbaa !15
  %35 = call i32 @get_bits(ptr noundef %34, i32 noundef 4)
  %36 = getelementptr inbounds nuw %struct.IVIHuffDesc, ptr %14, i32 0, i32 0
  store i32 %35, ptr %36, align 4, !tbaa !26
  %37 = getelementptr inbounds nuw %struct.IVIHuffDesc, ptr %14, i32 0, i32 0
  %38 = load i32, ptr %37, align 4, !tbaa !26
  %39 = icmp ne i32 %38, 0
  br i1 %39, label %42, label %40

40:                                               ; preds = %33
  %41 = load ptr, ptr %11, align 8, !tbaa !19
  call void (ptr, i32, ptr, ...) @av_log(ptr noundef %41, i32 noundef 16, ptr noundef @.str)
  store i32 -1094995529, ptr %6, align 4
  store i32 1, ptr %15, align 4
  br label %121

42:                                               ; preds = %33
  store i32 0, ptr %12, align 4, !tbaa !4
  br label %43

43:                                               ; preds = %56, %42
  %44 = load i32, ptr %12, align 4, !tbaa !4
  %45 = getelementptr inbounds nuw %struct.IVIHuffDesc, ptr %14, i32 0, i32 0
  %46 = load i32, ptr %45, align 4, !tbaa !26
  %47 = icmp slt i32 %44, %46
  br i1 %47, label %48, label %59

48:                                               ; preds = %43
  %49 = load ptr, ptr %7, align 8, !tbaa !15
  %50 = call i32 @get_bits(ptr noundef %49, i32 noundef 4)
  %51 = trunc i32 %50 to i8
  %52 = getelementptr inbounds nuw %struct.IVIHuffDesc, ptr %14, i32 0, i32 1
  %53 = load i32, ptr %12, align 4, !tbaa !4
  %54 = sext i32 %53 to i64
  %55 = getelementptr inbounds [16 x i8], ptr %52, i64 0, i64 %54
  store i8 %51, ptr %55, align 1, !tbaa !27
  br label %56

56:                                               ; preds = %48
  %57 = load i32, ptr %12, align 4, !tbaa !4
  %58 = add nsw i32 %57, 1
  store i32 %58, ptr %12, align 4, !tbaa !4
  br label %43, !llvm.loop !28

59:                                               ; preds = %43
  %60 = load ptr, ptr %10, align 8, !tbaa !17
  %61 = getelementptr inbounds nuw %struct.IVIHuffTab, ptr %60, i32 0, i32 2
  %62 = call i32 @ivi_huff_desc_cmp(ptr noundef %14, ptr noundef %61)
  %63 = icmp ne i32 %62, 0
  br i1 %63, label %70, label %64

64:                                               ; preds = %59
  %65 = load ptr, ptr %10, align 8, !tbaa !17
  %66 = getelementptr inbounds nuw %struct.IVIHuffTab, ptr %65, i32 0, i32 3
  %67 = getelementptr inbounds nuw %struct.VLC, ptr %66, i32 0, i32 1
  %68 = load ptr, ptr %67, align 8, !tbaa !29
  %69 = icmp ne ptr %68, null
  br i1 %69, label %96, label %70

70:                                               ; preds = %64, %59
  %71 = load ptr, ptr %10, align 8, !tbaa !17
  %72 = getelementptr inbounds nuw %struct.IVIHuffTab, ptr %71, i32 0, i32 2
  call void @ivi_huff_desc_copy(ptr noundef %72, ptr noundef %14)
  %73 = load ptr, ptr %10, align 8, !tbaa !17
  %74 = getelementptr inbounds nuw %struct.IVIHuffTab, ptr %73, i32 0, i32 3
  %75 = getelementptr inbounds nuw %struct.VLC, ptr %74, i32 0, i32 1
  %76 = load ptr, ptr %75, align 8, !tbaa !29
  %77 = icmp ne ptr %76, null
  br i1 %77, label %78, label %81

78:                                               ; preds = %70
  %79 = load ptr, ptr %10, align 8, !tbaa !17
  %80 = getelementptr inbounds nuw %struct.IVIHuffTab, ptr %79, i32 0, i32 3
  call void @ff_vlc_free(ptr noundef %80)
  br label %81

81:                                               ; preds = %78, %70
  %82 = load ptr, ptr %10, align 8, !tbaa !17
  %83 = getelementptr inbounds nuw %struct.IVIHuffTab, ptr %82, i32 0, i32 2
  %84 = load ptr, ptr %10, align 8, !tbaa !17
  %85 = getelementptr inbounds nuw %struct.IVIHuffTab, ptr %84, i32 0, i32 3
  %86 = call i32 @ivi_create_huff_from_desc(ptr noundef %83, ptr noundef %85, i32 noundef 0)
  store i32 %86, ptr %13, align 4, !tbaa !4
  %87 = load i32, ptr %13, align 4, !tbaa !4
  %88 = icmp ne i32 %87, 0
  br i1 %88, label %89, label %95

89:                                               ; preds = %81
  %90 = load ptr, ptr %10, align 8, !tbaa !17
  %91 = getelementptr inbounds nuw %struct.IVIHuffTab, ptr %90, i32 0, i32 2
  %92 = getelementptr inbounds nuw %struct.IVIHuffDesc, ptr %91, i32 0, i32 0
  store i32 0, ptr %92, align 8, !tbaa !30
  %93 = load ptr, ptr %11, align 8, !tbaa !19
  call void (ptr, i32, ptr, ...) @av_log(ptr noundef %93, i32 noundef 16, ptr noundef @.str.1)
  %94 = load i32, ptr %13, align 4, !tbaa !4
  store i32 %94, ptr %6, align 4
  store i32 1, ptr %15, align 4
  br label %121

95:                                               ; preds = %81
  br label %96

96:                                               ; preds = %95, %64
  %97 = load ptr, ptr %10, align 8, !tbaa !17
  %98 = getelementptr inbounds nuw %struct.IVIHuffTab, ptr %97, i32 0, i32 3
  %99 = load ptr, ptr %10, align 8, !tbaa !17
  %100 = getelementptr inbounds nuw %struct.IVIHuffTab, ptr %99, i32 0, i32 1
  store ptr %98, ptr %100, align 8, !tbaa !21
  br label %120

101:                                              ; preds = %24
  %102 = load i32, ptr %9, align 4, !tbaa !4
  %103 = icmp ne i32 %102, 0
  br i1 %103, label %104, label %110

104:                                              ; preds = %101
  %105 = load ptr, ptr %10, align 8, !tbaa !17
  %106 = getelementptr inbounds nuw %struct.IVIHuffTab, ptr %105, i32 0, i32 0
  %107 = load i32, ptr %106, align 8, !tbaa !25
  %108 = sext i32 %107 to i64
  %109 = getelementptr inbounds [8 x %struct.VLC], ptr @ivi_blk_vlc_tabs, i64 0, i64 %108
  br label %116

110:                                              ; preds = %101
  %111 = load ptr, ptr %10, align 8, !tbaa !17
  %112 = getelementptr inbounds nuw %struct.IVIHuffTab, ptr %111, i32 0, i32 0
  %113 = load i32, ptr %112, align 8, !tbaa !25
  %114 = sext i32 %113 to i64
  %115 = getelementptr inbounds [8 x %struct.VLC], ptr @ivi_mb_vlc_tabs, i64 0, i64 %114
  br label %116

116:                                              ; preds = %110, %104
  %117 = phi ptr [ %109, %104 ], [ %115, %110 ]
  %118 = load ptr, ptr %10, align 8, !tbaa !17
  %119 = getelementptr inbounds nuw %struct.IVIHuffTab, ptr %118, i32 0, i32 1
  store ptr %117, ptr %119, align 8, !tbaa !21
  br label %120

120:                                              ; preds = %116, %96
  store i32 0, ptr %6, align 4
  store i32 1, ptr %15, align 4
  br label %121

121:                                              ; preds = %120, %89, %40, %18
  call void @llvm.lifetime.end.p0(i64 20, ptr %14) #12
  call void @llvm.lifetime.end.p0(i64 4, ptr %13) #12
  call void @llvm.lifetime.end.p0(i64 4, ptr %12) #12
  %122 = load i32, ptr %6, align 4
  ret i32 %122
}