; Function Attrs: nounwind uwtable
define i32 @ff_ivi_dec_huff_desc(ptr noundef captures(none) %0, i32 noundef %1, i32 noundef %2, ptr noundef %3, ptr noundef %4) local_unnamed_addr #2 {
  %6 = alloca %struct.IVIHuffDesc, align 4
  call void @llvm.lifetime.start.p0(i64 20, ptr nonnull %6) #10
  %.not = icmp eq i32 %1, 0
  br i1 %.not, label %7, label %10

7:                                                ; preds = %5
  %.not32 = icmp eq i32 %2, 0
  %8 = select i1 %.not32, ptr getelementptr inbounds nuw (i8, ptr @ivi_mb_vlc_tabs, i64 168), ptr getelementptr inbounds nuw (i8, ptr @ivi_blk_vlc_tabs, i64 168)
  %9 = getelementptr inbounds nuw i8, ptr %3, i64 8
  store ptr %8, ptr %9, align 8, !tbaa !14
  br label %75

10:                                               ; preds = %5
  %11 = getelementptr inbounds nuw i8, ptr %0, i64 16
  %12 = load i32, ptr %11, align 8, !tbaa !18
  %13 = getelementptr inbounds nuw i8, ptr %0, i64 24
  %14 = load i32, ptr %13, align 8, !tbaa !21
  %15 = load ptr, ptr %0, align 8, !tbaa !22
  %16 = lshr i32 %12, 3
  %17 = zext nneg i32 %16 to i64
  %18 = getelementptr inbounds nuw i8, ptr %15, i64 %17
  %19 = load i32, ptr %18, align 1, !tbaa !23
  %20 = and i32 %12, 7
  %21 = lshr i32 %19, %20
  %22 = and i32 %21, 7
  %23 = add i32 %12, 3
  %24 = tail call i32 @llvm.umin.i32(i32 %14, i32 %23)
  store i32 %24, ptr %11, align 8, !tbaa !18
  store i32 %22, ptr %3, align 8, !tbaa !24
  %25 = icmp eq i32 %22, 7
  br i1 %25, label %26, label %69

26:                                               ; preds = %10
  %27 = lshr i32 %24, 3
  %28 = zext nneg i32 %27 to i64
  %29 = getelementptr inbounds nuw i8, ptr %15, i64 %28
  %30 = load i32, ptr %29, align 1, !tbaa !23
  %31 = and i32 %24, 7
  %32 = lshr i32 %30, %31
  %33 = and i32 %32, 15
  %34 = add i32 %24, 4
  %35 = tail call i32 @llvm.umin.i32(i32 %14, i32 %34)
  store i32 %35, ptr %11, align 8, !tbaa !18
  %.not34 = icmp eq i32 %33, 0
  br i1 %.not34, label %37, label %.preheader

.preheader:                                       ; preds = %26
  %36 = getelementptr inbounds nuw i8, ptr %6, i64 4
  %wide.trip.count = zext nneg i32 %33 to i64
  br label %38

37:                                               ; preds = %26
  tail call void (ptr, i32, ptr, ...) @av_log(ptr noundef %4, i32 noundef 16, ptr noundef nonnull @.str) #10
  br label %75

38:                                               ; preds = %.preheader, %38
  %indvars.iv = phi i64 [ 0, %.preheader ], [ %indvars.iv.next, %38 ]
  %39 = phi i32 [ %35, %.preheader ], [ %47, %38 ]
  %40 = lshr i32 %39, 3
  %41 = zext nneg i32 %40 to i64
  %42 = getelementptr inbounds nuw i8, ptr %15, i64 %41
  %43 = load i32, ptr %42, align 1, !tbaa !23
  %44 = and i32 %39, 7
  %45 = lshr i32 %43, %44
  %46 = add i32 %39, 4
  %47 = tail call i32 @llvm.umin.i32(i32 %14, i32 %46)
  store i32 %47, ptr %11, align 8, !tbaa !18
  %48 = trunc i32 %45 to i8
  %49 = and i8 %48, 15
  %50 = getelementptr inbounds nuw [16 x i8], ptr %36, i64 0, i64 %indvars.iv
  store i8 %49, ptr %50, align 1, !tbaa !23
  %indvars.iv.next = add nuw nsw i64 %indvars.iv, 1
  %exitcond.not = icmp eq i64 %indvars.iv.next, %wide.trip.count
  br i1 %exitcond.not, label %51, label %38, !llvm.loop !25

51:                                               ; preds = %38
  %52 = getelementptr inbounds nuw i8, ptr %3, i64 16
  %53 = load i32, ptr %52, align 4, !tbaa !26
  %.not.i = icmp eq i32 %33, %53
  br i1 %.not.i, label %ivi_huff_desc_cmp.exit, label %ivi_huff_desc_cmp.exit.thread

ivi_huff_desc_cmp.exit:                           ; preds = %51
  %54 = getelementptr inbounds nuw i8, ptr %3, i64 20
  %bcmp.i = call i32 @bcmp(ptr nonnull readonly %36, ptr nonnull readonly %54, i64 %wide.trip.count)
  %.not40 = icmp eq i32 %bcmp.i, 0
  br i1 %.not40, label %55, label %ivi_huff_desc_cmp.exit.thread

55:                                               ; preds = %ivi_huff_desc_cmp.exit
  %56 = getelementptr inbounds nuw i8, ptr %3, i64 48
  %57 = load ptr, ptr %56, align 8, !tbaa !27
  %.not36 = icmp eq ptr %57, null
  br i1 %.not36, label %ivi_huff_desc_cmp.exit.thread, label %66

ivi_huff_desc_cmp.exit.thread:                    ; preds = %51, %55, %ivi_huff_desc_cmp.exit
  store i32 %33, ptr %52, align 4, !tbaa !26
  %58 = getelementptr inbounds nuw i8, ptr %3, i64 20
  call void @llvm.memcpy.p0.p0.i64(ptr nonnull align 4 %58, ptr nonnull readonly align 4 %36, i64 %wide.trip.count, i1 false)
  %59 = getelementptr inbounds nuw i8, ptr %3, i64 40
  %60 = getelementptr inbounds nuw i8, ptr %3, i64 48
  %61 = load ptr, ptr %60, align 8, !tbaa !27
  %.not37 = icmp eq ptr %61, null
  br i1 %.not37, label %63, label %62

62:                                               ; preds = %ivi_huff_desc_cmp.exit.thread
  tail call void @ff_vlc_free(ptr noundef nonnull %59) #10
  br label %63

63:                                               ; preds = %62, %ivi_huff_desc_cmp.exit.thread
  %64 = tail call fastcc i32 @ivi_create_huff_from_desc(ptr noundef nonnull %52, ptr noundef nonnull %59, i32 noundef 0)
  %.not38 = icmp eq i32 %64, 0
  br i1 %.not38, label %66, label %65

65:                                               ; preds = %63
  store i32 0, ptr %52, align 8, !tbaa !28
  tail call void (ptr, i32, ptr, ...) @av_log(ptr noundef %4, i32 noundef 16, ptr noundef nonnull @.str.1) #10
  br label %75

66:                                               ; preds = %63, %55
  %67 = getelementptr inbounds nuw i8, ptr %3, i64 40
  %68 = getelementptr inbounds nuw i8, ptr %3, i64 8
  store ptr %67, ptr %68, align 8, !tbaa !14
  br label %75

69:                                               ; preds = %10
  %.not33 = icmp eq i32 %2, 0
  %70 = zext nneg i32 %22 to i64
  %71 = getelementptr inbounds nuw [8 x %struct.VLC], ptr @ivi_blk_vlc_tabs, i64 0, i64 %70
  %72 = getelementptr inbounds nuw [8 x %struct.VLC], ptr @ivi_mb_vlc_tabs, i64 0, i64 %70
  %73 = select i1 %.not33, ptr %72, ptr %71
  %74 = getelementptr inbounds nuw i8, ptr %3, i64 8
  store ptr %73, ptr %74, align 8, !tbaa !14
  br label %75

75:                                               ; preds = %66, %69, %65, %37, %7
  %.0 = phi i32 [ %64, %65 ], [ -1094995529, %37 ], [ 0, %7 ], [ 0, %69 ], [ 0, %66 ]
  call void @llvm.lifetime.end.p0(i64 20, ptr nonnull %6) #10
  ret i32 %.0
}